target datalayout = "e-m:e-p270:32:32-p271:32:32-p272:64:64-i64:64-i128:128-f80:128-n8:16:32:64-S128"
target triple = "x86_64-pc-linux-gnu"

@.str.3 = private unnamed_addr constant [9 x i8] c"regexp.c\00", align 1
@.str.20 = private unnamed_addr constant [30 x i8] c"regular expression failed: %s\00", align 1
@__func__.regexp_fixed_prefix = private unnamed_addr constant [20 x i8] c"regexp_fixed_prefix\00", align 1

; Function Attrs: nounwind uwtable
define dso_local ptr @regexp_fixed_prefix(ptr noundef %0, i1 noundef zeroext %1, i32 noundef %2, ptr noundef %3) #0 {
  %5 = alloca ptr, align 8
  %6 = alloca ptr, align 8
  %7 = alloca i8, align 1
  %8 = alloca i32, align 4
  %9 = alloca ptr, align 8
  %10 = alloca ptr, align 8
  %11 = alloca ptr, align 8
  %12 = alloca i32, align 4
  %13 = alloca i32, align 4
  %14 = alloca ptr, align 8
  %15 = alloca i64, align 8
  %16 = alloca i64, align 8
  %17 = alloca [100 x i8], align 16
  %18 = alloca i32, align 4
  store ptr %0, ptr %6, align 8
  %19 = zext i1 %1 to i8
  store i8 %19, ptr %7, align 1
  store i32 %2, ptr %8, align 4
  store ptr %3, ptr %9, align 8
  call void @llvm.lifetime.start.p0(i64 8, ptr %10) #8
  call void @llvm.lifetime.start.p0(i64 8, ptr %11) #8
  call void @llvm.lifetime.start.p0(i64 4, ptr %12) #8
  call void @llvm.lifetime.start.p0(i64 4, ptr %13) #8
  call void @llvm.lifetime.start.p0(i64 8, ptr %14) #8
  call void @llvm.lifetime.start.p0(i64 8, ptr %15) #8
  call void @llvm.lifetime.start.p0(i64 8, ptr %16) #8
  call void @llvm.lifetime.start.p0(i64 100, ptr %17) #8
  %20 = load ptr, ptr %9, align 8
  store i8 0, ptr %20, align 1
  store i32 3, ptr %12, align 4
  %21 = load i8, ptr %7, align 1, !range !6, !noundef !7
  %22 = trunc i8 %21 to i1
  br i1 %22, label %23, label %26

23:                                               ; preds = %4
  %24 = load i32, ptr %12, align 4
  %25 = or i32 %24, 8
  store i32 %25, ptr %12, align 4
  br label %26

26:                                               ; preds = %23, %4
  %27 = load ptr, ptr %6, align 8
  %28 = load i32, ptr %12, align 4
  %29 = or i32 %28, 16
  %30 = load i32, ptr %8, align 4
  %31 = call ptr @RE_compile_and_cache(ptr noundef %27, i32 noundef %29, i32 noundef %30)
  store ptr %31, ptr %11, align 8
  %32 = load ptr, ptr %11, align 8
  %33 = call i32 @pg_regprefix(ptr noundef %32, ptr noundef %14, ptr noundef %15)
  store i32 %33, ptr %13, align 4
  %34 = load i32, ptr %13, align 4
  switch i32 %34, label %38 [
    i32 1, label %35
    i32 -1, label %55
    i32 -2, label %36
  ]

35:                                               ; preds = %26
  store ptr null, ptr %5, align 8
  store i32 1, ptr %18, align 4
  br label %71

36:                                               ; preds = %26
  %37 = load ptr, ptr %9, align 8
  store i8 1, ptr %37, align 1
  br label %55

38:                                               ; preds = %26
  %39 = load i32, ptr %13, align 4
  %40 = load ptr, ptr %11, align 8
  %41 = getelementptr inbounds [100 x i8], ptr %17, i64 0, i64 0
  %42 = call i64 @pg_regerror(i32 noundef %39, ptr noundef %40, ptr noundef %41, i64 noundef 100)
  br label %43

43:                                               ; preds = %38
  br i1 true, label %44, label %46

44:                                               ; preds = %43
  %45 = call zeroext i1 @errstart_cold(i32 noundef 21, ptr noundef null) #10
  br i1 %45, label %48, label %52

46:                                               ; preds = %43
  %47 = call zeroext i1 @errstart(i32 noundef 21, ptr noundef null)
  br i1 %47, label %48, label %52

48:                                               ; preds = %46, %44
  %49 = call i32 @errcode(i32 noundef 302252162)
  %50 = getelementptr inbounds [100 x i8], ptr %17, i64 0, i64 0
  %51 = call i32 (ptr, ...) @errmsg(ptr noundef @.str.20, ptr noundef %50)
  call void @errfinish(ptr noundef @.str.3, i32 noundef 1996, ptr noundef @__func__.regexp_fixed_prefix)
  br label %52

52:                                               ; preds = %48, %46, %44
  unreachable

53:                                               ; No predecessors!
  br label %54

54:                                               ; preds = %53
  br label %55

55:                                               ; preds = %54, %36, %26
  %56 = call i32 @pg_database_encoding_max_length()
  %57 = sext i32 %56 to i64
  %58 = load i64, ptr %15, align 8
  %59 = mul i64 %57, %58
  %60 = add i64 %59, 1
  store i64 %60, ptr %16, align 8
  %61 = load i64, ptr %16, align 8
  %62 = call ptr @palloc(i64 noundef %61)
  store ptr %62, ptr %10, align 8
  %63 = load ptr, ptr %14, align 8
  %64 = load ptr, ptr %10, align 8
  %65 = load i64, ptr %15, align 8
  %66 = trunc i64 %65 to i32
  %67 = call i32 @pg_wchar2mb_with_len(ptr noundef %63, ptr noundef %64, i32 noundef %66)
  %68 = sext i32 %67 to i64
  store i64 %68, ptr %15, align 8
  %69 = load ptr, ptr %14, align 8
  call void @pfree(ptr noundef %69)
  %70 = load ptr, ptr %10, align 8
  store ptr %70, ptr %5, align 8
  store i32 1, ptr %18, align 4
  br label %71

71:                                               ; preds = %55, %35
  call void @llvm.lifetime.end.p0(i64 100, ptr %17) #8
  call void @llvm.lifetime.end.p0(i64 8, ptr %16) #8
  call void @llvm.lifetime.end.p0(i64 8, ptr %15) #8
  call void @llvm.lifetime.end.p0(i64 8, ptr %14) #8
  call void @llvm.lifetime.end.p0(i64 4, ptr %13) #8
  call void @llvm.lifetime.end.p0(i64 4, ptr %12) #8
  call void @llvm.lifetime.end.p0(i64 8, ptr %11) #8
  call void @llvm.lifetime.end.p0(i64 8, ptr %10) #8
  %72 = load ptr, ptr %5, align 8
  ret ptr %72
}