; Function Attrs: nounwind uwtable
define dso_local noundef ptr @regexp_fixed_prefix(ptr noundef %0, i1 noundef zeroext %1, i32 noundef %2, ptr noundef writeonly captures(none) initializes((0, 1)) %3) local_unnamed_addr #0 {
  %5 = alloca ptr, align 8
  %6 = alloca i64, align 8
  %7 = alloca [100 x i8], align 16
  call void @llvm.lifetime.start.p0(i64 8, ptr nonnull %5) #9
  call void @llvm.lifetime.start.p0(i64 8, ptr nonnull %6) #9
  call void @llvm.lifetime.start.p0(i64 100, ptr nonnull %7) #9
  store i8 0, ptr %3, align 1
  %spec.select = select i1 %1, i32 27, i32 19
  %8 = tail call ptr @RE_compile_and_cache(ptr noundef %0, i32 noundef %spec.select, i32 noundef %2)
  %9 = call i32 @pg_regprefix(ptr noundef nonnull getelementptr inbounds nuw (i8, ptr @re_array, i64 32), ptr noundef nonnull %5, ptr noundef nonnull %6) #9
  switch i32 %9, label %11 [
    i32 1, label %29
    i32 -1, label %16
    i32 -2, label %10
  ]

10:                                               ; preds = %4
  store i8 1, ptr %3, align 1
  br label %16

11:                                               ; preds = %4
  %12 = call i64 @pg_regerror(i32 noundef %9, ptr noundef nonnull getelementptr inbounds nuw (i8, ptr @re_array, i64 32), ptr noundef nonnull %7, i64 noundef 100) #9
  %13 = call zeroext i1 @errstart_cold(i32 noundef 21, ptr noundef null) #10
  call void @llvm.assume(i1 %13)
  %14 = call i32 @errcode(i32 noundef 302252162) #9
  %15 = call i32 (ptr, ...) @errmsg(ptr noundef nonnull @.str.20, ptr noundef nonnull %7) #9
  call void @errfinish(ptr noundef nonnull @.str.3, i32 noundef 1996, ptr noundef nonnull @__func__.regexp_fixed_prefix) #9
  unreachable

16:                                               ; preds = %10, %4
  %17 = call i32 @pg_database_encoding_max_length() #9
  %18 = sext i32 %17 to i64
  %19 = load i64, ptr %6, align 8
  %20 = mul i64 %19, %18
  %21 = add i64 %20, 1
  %22 = call ptr @palloc(i64 noundef %21) #9
  %23 = load ptr, ptr %5, align 8
  %24 = load i64, ptr %6, align 8
  %25 = trunc i64 %24 to i32
  %26 = call i32 @pg_wchar2mb_with_len(ptr noundef %23, ptr noundef %22, i32 noundef %25) #9
  %27 = sext i32 %26 to i64
  store i64 %27, ptr %6, align 8
  %28 = load ptr, ptr %5, align 8
  call void @pfree(ptr noundef %28) #9
  br label %29

29:                                               ; preds = %4, %16
  %.0 = phi ptr [ %22, %16 ], [ null, %4 ]
  call void @llvm.lifetime.end.p0(i64 100, ptr nonnull %7) #9
  call void @llvm.lifetime.end.p0(i64 8, ptr nonnull %6) #9
  call void @llvm.lifetime.end.p0(i64 8, ptr nonnull %5) #9
  ret ptr %.0
}